target datalayout = "e-m:e-p270:32:32-p271:32:32-p272:64:64-i64:64-i128:128-f80:128-n8:16:32:64-S128"
target triple = "x86_64-unknown-linux-gnu"

%"class.sat::literal" = type { i32 }
%class.symbol = type { ptr }
%"struct.arith::solver::var_value_hash" = type { ptr }
%"struct.arith::solver::var_value_eq" = type { ptr }
%"class.arith::solver" = type { %"class.euf::th_euf_solver.base", [4 x i8], %class.int_hashtable, i8, %class.scoped_ptr_vector, i32, [4 x i8], %"class.arith::sls", %class.vector.11, %class.vector.12, i32, i32, i32, i32, %class.svector.13, %class.svector.15, %class.svector.17, %class.svector.19, %class.svector.21, %class.svector.15, ptr, %class.ptr_vector.23, %class.ptr_vector.25, %class.ptr_vector.23, %class.vector.27, %class.u_map, %class.vector.27, %class.svector.1, %class.svector.1, i32, %class.svector.30, i32, %class.indexed_uint_set, i32, %"struct.lp_api::stats", %class.svector.32, %class.scoped_ptr, %class.scoped_ptr.34, %class.scoped_ptr.35, %"class.arith::solver::resource_limit", %class.ptr_vector.36, %class.symbol, %"class.std::vector", %"class.lp::lp_bound_propagator", %class.vector.47, %"class.lp::explanation", %class.svector.15, %class.svector.15, %class.vector.11, %class.svector.17, %class.vector.51, %"class.nla::lemma", %class.arith_util, i8, %class.vector.48, %class.vector.48, %class.vector.48, %class.vector.11, %class.map.53, i32, %"class.sat::literal", %class.ref_vector, %class.obj_ref, %class.obj_map, %class.obj_map.61, i8, [7 x i8], %"class.arith::arith_proof_hint_builder" }
%"class.euf::th_euf_solver.base" = type <{ %"class.euf::th_solver", ptr, %class.ptr_vector, %class.svector.1, i32 }>
%"class.euf::th_solver" = type { %"class.sat::extension", %"class.euf::th_model_builder", %"class.euf::th_decompile", %"class.euf::th_internalizer", ptr }
%"class.sat::extension" = type { ptr, i8, i32, %class.symbol, ptr }
%"class.euf::th_model_builder" = type { ptr }
%"class.euf::th_decompile" = type { ptr }
%"class.euf::th_internalizer" = type { ptr, %class.ptr_vector, %class.svector }
%class.svector = type { %class.vector.0 }
%class.vector.0 = type { ptr }
%class.ptr_vector = type { %class.vector }
%class.vector = type { ptr }
%class.int_hashtable = type { %class.core_hashtable.base, [4 x i8] }
%class.core_hashtable.base = type <{ %"struct.arith::solver::var_value_hash", %"struct.arith::solver::var_value_eq", ptr, i32, i32, i32 }>
%class.scoped_ptr_vector = type { %class.ptr_vector.3 }
%class.ptr_vector.3 = type { %class.vector.4 }
%class.vector.4 = type { ptr }
%"class.arith::sls" = type <{ %"class.sat::local_search_plugin", ptr, ptr, ptr, %"struct.arith::sls::stats", [4 x i8], %"struct.arith::sls::config", %class.scoped_ptr_vector.5, %class.vector.8, %class.svector.9, i8, [7 x i8] }>
%"class.sat::local_search_plugin" = type { ptr }
%"struct.arith::sls::stats" = type { i32 }
%"struct.arith::sls::config" = type { double, i32, i32, i32, double }
%class.scoped_ptr_vector.5 = type { %class.ptr_vector.6 }
%class.ptr_vector.6 = type { %class.vector.7 }
%class.vector.7 = type { ptr }
%class.vector.8 = type { ptr }
%class.svector.9 = type { %class.vector.10 }
%class.vector.10 = type { ptr }
%class.vector.12 = type { ptr }
%class.svector.13 = type { %class.vector.14 }
%class.vector.14 = type { ptr }
%class.svector.19 = type { %class.vector.20 }
%class.vector.20 = type { ptr }
%class.svector.21 = type { %class.vector.22 }
%class.vector.22 = type { ptr }
%class.ptr_vector.25 = type { %class.vector.26 }
%class.vector.26 = type { ptr }
%class.ptr_vector.23 = type { %class.vector.24 }
%class.vector.24 = type { ptr }
%class.u_map = type { %class.map }
%class.map = type { %class.table2map }
%class.table2map = type { %class.core_hashtable.28 }
%class.core_hashtable.28 = type <{ ptr, i32, i32, i32, [4 x i8] }>
%class.vector.27 = type { ptr }
%class.svector.1 = type { %class.vector.2 }
%class.vector.2 = type { ptr }
%class.svector.30 = type { %class.vector.31 }
%class.vector.31 = type { ptr }
%class.indexed_uint_set = type { i32, %class.svector.1, %class.svector.1 }
%"struct.lp_api::stats" = type { i32, i32, i32, i32, i32, i32, i32, i32, i32, i32, i32, i32, i32, i32, i32, i32 }
%class.svector.32 = type { %class.vector.33 }
%class.vector.33 = type { ptr }
%class.scoped_ptr = type { ptr }
%class.scoped_ptr.34 = type { ptr }
%class.scoped_ptr.35 = type { ptr }
%"class.arith::solver::resource_limit" = type { %"class.lp::lp_resource_limit", ptr }
%"class.lp::lp_resource_limit" = type { ptr }
%class.ptr_vector.36 = type { %class.vector.37 }
%class.vector.37 = type { ptr }
%"class.std::vector" = type { %"struct.std::_Vector_base" }
%"struct.std::_Vector_base" = type { %"struct.std::_Vector_base<lp::implied_bound, std_allocator<lp::implied_bound>>::_Vector_impl" }
%"struct.std::_Vector_base<lp::implied_bound, std_allocator<lp::implied_bound>>::_Vector_impl" = type { %"struct.std::_Vector_base<lp::implied_bound, std_allocator<lp::implied_bound>>::_Vector_impl_data" }
%"struct.std::_Vector_base<lp::implied_bound, std_allocator<lp::implied_bound>>::_Vector_impl_data" = type { ptr, ptr, ptr }
%"class.lp::lp_bound_propagator" = type { %class.uint_set, %class.u_map.38, %class.u_map.38, ptr, ptr, %class.map.43, %class.map.43, %class.map.43, ptr }
%class.uint_set = type { %class.svector.1 }
%class.u_map.38 = type { %class.map.39 }
%class.map.39 = type { %class.table2map.40 }
%class.table2map.40 = type { %class.core_hashtable.41 }
%class.core_hashtable.41 = type <{ ptr, i32, i32, i32, [4 x i8] }>
%class.map.43 = type { %class.table2map.44 }
%class.table2map.44 = type { %class.core_hashtable.45 }
%class.core_hashtable.45 = type <{ ptr, i32, i32, i32, [4 x i8] }>
%class.vector.47 = type { ptr }
%"class.lp::explanation" = type { %class.vector.48, %class.hashtable }
%class.hashtable = type { %class.core_hashtable.base.50, [4 x i8] }
%class.core_hashtable.base.50 = type <{ ptr, i32, i32, i32 }>
%class.svector.15 = type { %class.vector.16 }
%class.vector.16 = type { ptr }
%class.svector.17 = type { %class.vector.18 }
%class.vector.18 = type { ptr }
%class.vector.51 = type { ptr }
%"class.nla::lemma" = type { %class.vector.52, %"class.lp::explanation" }
%class.vector.52 = type { ptr }
%class.arith_util = type { ptr, ptr }
%class.vector.48 = type { ptr }
%class.vector.11 = type { ptr }
%class.map.53 = type { %class.table2map.54 }
%class.table2map.54 = type { %class.core_hashtable.55 }
%class.core_hashtable.55 = type <{ ptr, i32, i32, i32, [4 x i8] }>
%class.ref_vector = type { %class.ref_vector_core }
%class.ref_vector_core = type { %class.ref_manager_wrapper, %class.ptr_vector.25 }
%class.ref_manager_wrapper = type { ptr }
%class.obj_ref = type { ptr, ptr }
%class.obj_map = type { %class.core_hashtable.57 }
%class.core_hashtable.57 = type <{ ptr, i32, i32, i32, [4 x i8] }>
%class.obj_map.61 = type { %class.core_hashtable.62 }
%class.core_hashtable.62 = type <{ ptr, i32, i32, i32, [4 x i8] }>
%"class.arith::arith_proof_hint_builder" = type <{ %class.vector.66, %class.svector.67, i32, i32, i32, i32, i32, [4 x i8] }>
%class.vector.66 = type { ptr }
%class.svector.67 = type { %class.vector.68 }
%class.vector.68 = type { ptr }

; Function Attrs: mustprogress nounwind uwtable
define linkonce_odr hidden noundef nonnull align 8 dereferenceable(1888) ptr @_ZN10scoped_ptrIN2lp10lar_solverEEdeEv(ptr noundef nonnull align 8 dereferenceable(8) %this) #4 comdat align 2 {
entry:
  %this.addr = alloca ptr, align 8
  store ptr %this, ptr %this.addr, align 8
  %this1 = load ptr, ptr %this.addr, align 8
  %m_ptr = getelementptr inbounds %class.scoped_ptr.35, ptr %this1, i32 0, i32 0
  %0 = load ptr, ptr %m_ptr, align 8
  ret ptr %0
}

; Function Attrs: mustprogress uwtable
define linkonce_odr hidden noundef nonnull align 8 dereferenceable(1888) ptr @_ZN5arith6solver2lpEv(ptr noundef nonnull align 8 dereferenceable(1144) %this) #5 comdat align 2 {
entry:
  %this.addr = alloca ptr, align 8
  store ptr %this, ptr %this.addr, align 8
  %this1 = load ptr, ptr %this.addr, align 8
  %m_solver = getelementptr inbounds %"class.arith::solver", ptr %this1, i32 0, i32 38
  %call = call noundef nonnull align 8 dereferenceable(1888) ptr @_ZN10scoped_ptrIN2lp10lar_solverEEdeEv(ptr noundef nonnull align 8 dereferenceable(8) %m_solver)
  ret ptr %call
}

; Function Attrs: mustprogress nounwind uwtable
define linkonce_odr hidden noundef ptr @_ZNK10scoped_ptrIN3nla6solverEEptEv(ptr noundef nonnull align 8 dereferenceable(8) %this) #4 comdat align 2 {
entry:
  %this.addr = alloca ptr, align 8
  store ptr %this, ptr %this.addr, align 8
  %this1 = load ptr, ptr %this.addr, align 8
  %m_ptr = getelementptr inbounds %class.scoped_ptr, ptr %this1, i32 0, i32 0
  %0 = load ptr, ptr %m_ptr, align 8
  ret ptr %0
}

; Function Attrs: mustprogress nounwind uwtable
define linkonce_odr hidden noundef zeroext i1 @_ZNK10scoped_ptrIN3nla6solverEEcvbEv(ptr noundef nonnull align 8 dereferenceable(8) %this) #4 comdat align 2 {
entry:
  %this.addr = alloca ptr, align 8
  store ptr %this, ptr %this.addr, align 8
  %this1 = load ptr, ptr %this.addr, align 8
  %m_ptr = getelementptr inbounds %class.scoped_ptr, ptr %this1, i32 0, i32 0
  %0 = load ptr, ptr %m_ptr, align 8
  %cmp = icmp ne ptr %0, null
  ret i1 %cmp
}

; Function Attrs: mustprogress uwtable
define hidden void @_ZN5arith6solver13propagate_nlaEv(ptr noundef nonnull align 8 dereferenceable(1144) %this) #5 align 2 {
entry:
  %this.addr = alloca ptr, align 8
  store ptr %this, ptr %this.addr, align 8
  %this1 = load ptr, ptr %this.addr, align 8
  %m_nla = getelementptr inbounds %"class.arith::solver", ptr %this1, i32 0, i32 36
  %call = call noundef zeroext i1 @_ZNK10scoped_ptrIN3nla6solverEEcvbEv(ptr noundef nonnull align 8 dereferenceable(8) %m_nla)
  br i1 %call, label %if.then, label %if.end

if.then:                                          ; preds = %entry
  %m_nla2 = getelementptr inbounds %"class.arith::solver", ptr %this1, i32 0, i32 36
  %call3 = call noundef ptr @_ZNK10scoped_ptrIN3nla6solverEEptEv(ptr noundef nonnull align 8 dereferenceable(8) %m_nla2)
  call void @_ZN3nla6solver9propagateEv(ptr noundef nonnull align 8 dereferenceable(8) %call3)
  call void @_ZN5arith6solver10add_lemmasEv(ptr noundef nonnull align 8 dereferenceable(1144) %this1)
  %call4 = call noundef nonnull align 8 dereferenceable(1888) ptr @_ZN5arith6solver2lpEv(ptr noundef nonnull align 8 dereferenceable(1144) %this1)
  call void @_ZN2lp10lar_solver36collect_more_rows_for_lp_propagationEv(ptr noundef nonnull align 8 dereferenceable(1888) %call4)
  br label %if.end

if.end:                                           ; preds = %if.then, %entry
  ret void
}