; Function Attrs: mustprogress uwtable
define hidden void @_ZN5arith6solver13propagate_nlaEv(ptr noundef nonnull align 8 dereferenceable(1144) %this) local_unnamed_addr #3 align 2 {
entry:
  %m_nla = getelementptr inbounds i8, ptr %this, i64 576
  %0 = load ptr, ptr %m_nla, align 8
  %cmp.i.not = icmp eq ptr %0, null
  br i1 %cmp.i.not, label %if.end, label %if.then

if.then:                                          ; preds = %entry
  tail call void @_ZN3nla6solver9propagateEv(ptr noundef nonnull align 8 dereferenceable(8) %0)
  tail call void @_ZN5arith6solver10add_lemmasEv(ptr noundef nonnull align 8 dereferenceable(1144) %this)
  %m_solver.i = getelementptr inbounds i8, ptr %this, i64 592
  %1 = load ptr, ptr %m_solver.i, align 8
  tail call void @_ZN2lp10lar_solver36collect_more_rows_for_lp_propagationEv(ptr noundef nonnull align 8 dereferenceable(1888) %1)
  br label %if.end

if.end:                                           ; preds = %if.then, %entry
  ret void
}